target datalayout = "e-m:e-p270:32:32-p271:32:32-p272:64:64-i64:64-i128:128-f80:128-n8:16:32:64-S128"
target triple = "x86_64-pc-linux-gnu"

%struct.cli_exe_section = type { i32, i32, i32, i32, i32, i32, i32, i32, i32 }
%struct.cli_ctx_tag = type { ptr, ptr, ptr, ptr, ptr, ptr, ptr, i64, ptr, i32, i32, ptr, i32, i32, ptr, [16 x i8], ptr, ptr, ptr, ptr, ptr, ptr, %struct.timeval, i8, i8 }
%struct.timeval = type { i64, i64 }

@.str.338 = private unnamed_addr constant [3 x i8] c"PE\00", align 1
@.str.353 = private unnamed_addr constant [8 x i8] c"RawSize\00", align 1
@.str.354 = private unnamed_addr constant [10 x i8] c"RawOffset\00", align 1
@.str.355 = private unnamed_addr constant [7 x i8] c"0x%08x\00", align 1
@.str.356 = private unnamed_addr constant [15 x i8] c"VirtualAddress\00", align 1
@.str.357 = private unnamed_addr constant [11 x i8] c"Executable\00", align 1
@.str.358 = private unnamed_addr constant [9 x i8] c"Writable\00", align 1
@.str.359 = private unnamed_addr constant [7 x i8] c"Signed\00", align 1
@.str.360 = private unnamed_addr constant [9 x i8] c"Sections\00", align 1

; Function Attrs: nounwind uwtable
define internal ptr @get_pe_property(ptr noundef %0) #0 {
  %2 = alloca ptr, align 8
  %3 = alloca ptr, align 8
  %4 = alloca ptr, align 8
  store ptr %0, ptr %3, align 8
  %5 = load ptr, ptr %3, align 8
  %6 = icmp ne ptr %5, null
  br i1 %6, label %7, label %12

7:                                                ; preds = %1
  %8 = load ptr, ptr %3, align 8
  %9 = getelementptr inbounds %struct.cli_ctx_tag, ptr %8, i32 0, i32 21
  %10 = load ptr, ptr %9, align 8
  %11 = icmp ne ptr %10, null
  br i1 %11, label %13, label %12

12:                                               ; preds = %7, %1
  store ptr null, ptr %2, align 8
  br label %32

13:                                               ; preds = %7
  %14 = load ptr, ptr %3, align 8
  %15 = getelementptr inbounds %struct.cli_ctx_tag, ptr %14, i32 0, i32 21
  %16 = load ptr, ptr %15, align 8
  %17 = call i32 @json_object_object_get_ex(ptr noundef %16, ptr noundef @.str.338, ptr noundef %4)
  %18 = icmp ne i32 %17, 0
  br i1 %18, label %30, label %19

19:                                               ; preds = %13
  %20 = call ptr @json_object_new_object()
  store ptr %20, ptr %4, align 8
  %21 = load ptr, ptr %4, align 8
  %22 = icmp ne ptr %21, null
  br i1 %22, label %24, label %23

23:                                               ; preds = %19
  store ptr null, ptr %2, align 8
  br label %32

24:                                               ; preds = %19
  %25 = load ptr, ptr %3, align 8
  %26 = getelementptr inbounds %struct.cli_ctx_tag, ptr %25, i32 0, i32 21
  %27 = load ptr, ptr %26, align 8
  %28 = load ptr, ptr %4, align 8
  %29 = call i32 @json_object_object_add(ptr noundef %27, ptr noundef @.str.338, ptr noundef %28)
  br label %30

30:                                               ; preds = %24, %13
  %31 = load ptr, ptr %4, align 8
  store ptr %31, ptr %2, align 8
  br label %32

32:                                               ; preds = %30, %23, %12
  %33 = load ptr, ptr %2, align 8
  ret ptr %33
}

; Function Attrs: nounwind uwtable
define internal ptr @get_section_json(ptr noundef %0) #0 {
  %2 = alloca ptr, align 8
  %3 = alloca ptr, align 8
  %4 = alloca ptr, align 8
  %5 = alloca ptr, align 8
  store ptr %0, ptr %3, align 8
  %6 = load ptr, ptr %3, align 8
  %7 = call ptr @get_pe_property(ptr noundef %6)
  store ptr %7, ptr %4, align 8
  %8 = load ptr, ptr %4, align 8
  %9 = icmp ne ptr %8, null
  br i1 %9, label %11, label %10

10:                                               ; preds = %1
  store ptr null, ptr %2, align 8
  br label %26

11:                                               ; preds = %1
  %12 = load ptr, ptr %4, align 8
  %13 = call i32 @json_object_object_get_ex(ptr noundef %12, ptr noundef @.str.360, ptr noundef %5)
  %14 = icmp ne i32 %13, 0
  br i1 %14, label %24, label %15

15:                                               ; preds = %11
  %16 = call ptr @json_object_new_array()
  store ptr %16, ptr %5, align 8
  %17 = load ptr, ptr %5, align 8
  %18 = icmp ne ptr %17, null
  br i1 %18, label %20, label %19

19:                                               ; preds = %15
  store ptr null, ptr %2, align 8
  br label %26

20:                                               ; preds = %15
  %21 = load ptr, ptr %4, align 8
  %22 = load ptr, ptr %5, align 8
  %23 = call i32 @json_object_object_add(ptr noundef %21, ptr noundef @.str.360, ptr noundef %22)
  br label %24

24:                                               ; preds = %20, %11
  %25 = load ptr, ptr %5, align 8
  store ptr %25, ptr %2, align 8
  br label %26

26:                                               ; preds = %24, %19, %10
  %27 = load ptr, ptr %2, align 8
  ret ptr %27
}

; Function Attrs: nounwind uwtable
define internal void @add_section_info(ptr noundef %0, ptr noundef %1) #0 {
  %3 = alloca ptr, align 8
  %4 = alloca ptr, align 8
  %5 = alloca ptr, align 8
  %6 = alloca ptr, align 8
  %7 = alloca ptr, align 8
  %8 = alloca [16 x i8], align 16
  store ptr %0, ptr %3, align 8
  store ptr %1, ptr %4, align 8
  %9 = load ptr, ptr %3, align 8
  %10 = call ptr @get_section_json(ptr noundef %9)
  store ptr %10, ptr %5, align 8
  %11 = load ptr, ptr %5, align 8
  %12 = icmp ne ptr %11, null
  br i1 %12, label %14, label %13

13:                                               ; preds = %2
  br label %126

14:                                               ; preds = %2
  %15 = call ptr @json_object_new_object()
  store ptr %15, ptr %6, align 8
  %16 = load ptr, ptr %6, align 8
  %17 = icmp ne ptr %16, null
  br i1 %17, label %19, label %18

18:                                               ; preds = %14
  br label %126

19:                                               ; preds = %14
  %20 = load ptr, ptr %4, align 8
  %21 = getelementptr inbounds %struct.cli_exe_section, ptr %20, i32 0, i32 3
  %22 = load i32, ptr %21, align 4
  %23 = call ptr @json_object_new_int(i32 noundef %22)
  store ptr %23, ptr %7, align 8
  %24 = load ptr, ptr %7, align 8
  %25 = icmp ne ptr %24, null
  br i1 %25, label %27, label %26

26:                                               ; preds = %19
  br label %126

27:                                               ; preds = %19
  %28 = load ptr, ptr %6, align 8
  %29 = load ptr, ptr %7, align 8
  %30 = call i32 @json_object_object_add(ptr noundef %28, ptr noundef @.str.353, ptr noundef %29)
  %31 = load ptr, ptr %4, align 8
  %32 = getelementptr inbounds %struct.cli_exe_section, ptr %31, i32 0, i32 2
  %33 = load i32, ptr %32, align 4
  %34 = call ptr @json_object_new_int(i32 noundef %33)
  store ptr %34, ptr %7, align 8
  %35 = load ptr, ptr %7, align 8
  %36 = icmp ne ptr %35, null
  br i1 %36, label %38, label %37

37:                                               ; preds = %27
  br label %126

38:                                               ; preds = %27
  %39 = load ptr, ptr %6, align 8
  %40 = load ptr, ptr %7, align 8
  %41 = call i32 @json_object_object_add(ptr noundef %39, ptr noundef @.str.354, ptr noundef %40)
  %42 = getelementptr inbounds [16 x i8], ptr %8, i64 0, i64 0
  %43 = load ptr, ptr %4, align 8
  %44 = getelementptr inbounds %struct.cli_exe_section, ptr %43, i32 0, i32 0
  %45 = load i32, ptr %44, align 4
  %46 = call i32 (ptr, i64, ptr, ...) @snprintf(ptr noundef %42, i64 noundef 16, ptr noundef @.str.355, i32 noundef %45) #9
  %47 = getelementptr inbounds [16 x i8], ptr %8, i64 0, i64 0
  %48 = call ptr @json_object_new_string(ptr noundef %47)
  store ptr %48, ptr %7, align 8
  %49 = load ptr, ptr %7, align 8
  %50 = icmp ne ptr %49, null
  br i1 %50, label %52, label %51

51:                                               ; preds = %38
  br label %126

52:                                               ; preds = %38
  %53 = load ptr, ptr %6, align 8
  %54 = load ptr, ptr %7, align 8
  %55 = call i32 @json_object_object_add(ptr noundef %53, ptr noundef @.str.356, ptr noundef %54)
  %56 = load ptr, ptr %4, align 8
  %57 = getelementptr inbounds %struct.cli_exe_section, ptr %56, i32 0, i32 4
  %58 = load i32, ptr %57, align 4
  %59 = and i32 %58, 536870912
  %60 = icmp eq i32 %59, 536870912
  %61 = zext i1 %60 to i32
  %62 = call ptr @json_object_new_boolean(i32 noundef %61)
  store ptr %62, ptr %7, align 8
  %63 = load ptr, ptr %7, align 8
  %64 = icmp ne ptr %63, null
  br i1 %64, label %65, label %69

65:                                               ; preds = %52
  %66 = load ptr, ptr %6, align 8
  %67 = load ptr, ptr %7, align 8
  %68 = call i32 @json_object_object_add(ptr noundef %66, ptr noundef @.str.357, ptr noundef %67)
  br label %69

69:                                               ; preds = %65, %52
  %70 = load ptr, ptr %4, align 8
  %71 = getelementptr inbounds %struct.cli_exe_section, ptr %70, i32 0, i32 4
  %72 = load i32, ptr %71, align 4
  %73 = and i32 %72, -2147483648
  %74 = icmp eq i32 %73, -2147483648
  %75 = zext i1 %74 to i32
  %76 = call ptr @json_object_new_boolean(i32 noundef %75)
  store ptr %76, ptr %7, align 8
  %77 = load ptr, ptr %7, align 8
  %78 = icmp ne ptr %77, null
  br i1 %78, label %79, label %83

79:                                               ; preds = %69
  %80 = load ptr, ptr %6, align 8
  %81 = load ptr, ptr %7, align 8
  %82 = call i32 @json_object_object_add(ptr noundef %80, ptr noundef @.str.358, ptr noundef %81)
  br label %83

83:                                               ; preds = %79, %69
  %84 = load ptr, ptr %4, align 8
  %85 = getelementptr inbounds %struct.cli_exe_section, ptr %84, i32 0, i32 5
  %86 = load i32, ptr %85, align 4
  %87 = lshr i32 %86, 31
  %88 = icmp ne i32 %87, 0
  br i1 %88, label %112, label %89

89:                                               ; preds = %83
  %90 = load ptr, ptr %4, align 8
  %91 = getelementptr inbounds %struct.cli_exe_section, ptr %90, i32 0, i32 6
  %92 = load i32, ptr %91, align 4
  %93 = lshr i32 %92, 31
  %94 = icmp ne i32 %93, 0
  br i1 %94, label %112, label %95

95:                                               ; preds = %89
  %96 = load ptr, ptr %4, align 8
  %97 = getelementptr inbounds %struct.cli_exe_section, ptr %96, i32 0, i32 3
  %98 = load i32, ptr %97, align 4
  %99 = icmp ne i32 %98, 0
  br i1 %99, label %100, label %106

100:                                              ; preds = %95
  %101 = load ptr, ptr %4, align 8
  %102 = getelementptr inbounds %struct.cli_exe_section, ptr %101, i32 0, i32 7
  %103 = load i32, ptr %102, align 4
  %104 = lshr i32 %103, 31
  %105 = icmp ne i32 %104, 0
  br i1 %105, label %112, label %106

106:                                              ; preds = %100, %95
  %107 = load ptr, ptr %4, align 8
  %108 = getelementptr inbounds %struct.cli_exe_section, ptr %107, i32 0, i32 8
  %109 = load i32, ptr %108, align 4
  %110 = lshr i32 %109, 31
  %111 = icmp ne i32 %110, 0
  br label %112

112:                                              ; preds = %106, %100, %89, %83
  %113 = phi i1 [ true, %100 ], [ true, %89 ], [ true, %83 ], [ %111, %106 ]
  %114 = zext i1 %113 to i32
  %115 = call ptr @json_object_new_boolean(i32 noundef %114)
  store ptr %115, ptr %7, align 8
  %116 = load ptr, ptr %7, align 8
  %117 = icmp ne ptr %116, null
  br i1 %117, label %118, label %122

118:                                              ; preds = %112
  %119 = load ptr, ptr %6, align 8
  %120 = load ptr, ptr %7, align 8
  %121 = call i32 @json_object_object_add(ptr noundef %119, ptr noundef @.str.359, ptr noundef %120)
  br label %122

122:                                              ; preds = %118, %112
  %123 = load ptr, ptr %5, align 8
  %124 = load ptr, ptr %6, align 8
  %125 = call i32 @json_object_array_add(ptr noundef %123, ptr noundef %124)
  br label %126

126:                                              ; preds = %122, %51, %37, %26, %18, %13
  ret void
}