; Function Attrs: nounwind uwtable
define internal fastcc void @add_section_info(ptr noundef readonly %0, ptr nocapture noundef readonly %1) unnamed_addr #1 {
  %3 = alloca ptr, align 8
  %4 = alloca ptr, align 8
  %5 = alloca [16 x i8], align 16
  call void @llvm.lifetime.start.p0(i64 8, ptr nonnull %4)
  call void @llvm.lifetime.start.p0(i64 8, ptr nonnull %3)
  %.not.i.i = icmp eq ptr %0, null
  br i1 %.not.i.i, label %get_pe_property.exit.thread.i, label %6

6:                                                ; preds = %2
  %7 = getelementptr inbounds i8, ptr %0, i64 160
  %8 = load ptr, ptr %7, align 8
  %.not8.i.i = icmp eq ptr %8, null
  br i1 %.not8.i.i, label %get_pe_property.exit.thread.i, label %9

9:                                                ; preds = %6
  %10 = call i32 @json_object_object_get_ex(ptr noundef nonnull %8, ptr noundef nonnull @.str.338, ptr noundef nonnull %3) #20
  %.not9.i.i = icmp eq i32 %10, 0
  br i1 %.not9.i.i, label %11, label %get_pe_property.exit.i

11:                                               ; preds = %9
  %12 = call ptr @json_object_new_object() #20
  store ptr %12, ptr %3, align 8
  %.not10.i.i = icmp eq ptr %12, null
  br i1 %.not10.i.i, label %get_pe_property.exit.thread.i, label %13

13:                                               ; preds = %11
  %14 = load ptr, ptr %7, align 8
  %15 = call i32 @json_object_object_add(ptr noundef %14, ptr noundef nonnull @.str.338, ptr noundef nonnull %12) #20
  br label %get_pe_property.exit.i

get_pe_property.exit.thread.i:                    ; preds = %11, %6, %2
  call void @llvm.lifetime.end.p0(i64 8, ptr nonnull %3)
  br label %get_section_json.exit.thread

get_pe_property.exit.i:                           ; preds = %13, %9
  %16 = load ptr, ptr %3, align 8
  call void @llvm.lifetime.end.p0(i64 8, ptr nonnull %3)
  %.not.i = icmp eq ptr %16, null
  br i1 %.not.i, label %get_section_json.exit.thread, label %17

17:                                               ; preds = %get_pe_property.exit.i
  %18 = call i32 @json_object_object_get_ex(ptr noundef nonnull %16, ptr noundef nonnull @.str.360, ptr noundef nonnull %4) #20
  %.not7.i = icmp eq i32 %18, 0
  br i1 %.not7.i, label %19, label %get_section_json.exit

19:                                               ; preds = %17
  %20 = call ptr @json_object_new_array() #20
  store ptr %20, ptr %4, align 8
  %.not8.i = icmp eq ptr %20, null
  br i1 %.not8.i, label %get_section_json.exit.thread, label %21

21:                                               ; preds = %19
  %22 = call i32 @json_object_object_add(ptr noundef nonnull %16, ptr noundef nonnull @.str.360, ptr noundef nonnull %20) #20
  br label %get_section_json.exit

get_section_json.exit.thread:                     ; preds = %get_pe_property.exit.i, %19, %get_pe_property.exit.thread.i
  call void @llvm.lifetime.end.p0(i64 8, ptr nonnull %4)
  br label %74

get_section_json.exit:                            ; preds = %17, %21
  %23 = load ptr, ptr %4, align 8
  call void @llvm.lifetime.end.p0(i64 8, ptr nonnull %4)
  %.not = icmp eq ptr %23, null
  br i1 %.not, label %74, label %24

24:                                               ; preds = %get_section_json.exit
  %25 = call ptr @json_object_new_object() #20
  %.not40 = icmp eq ptr %25, null
  br i1 %.not40, label %74, label %26

26:                                               ; preds = %24
  %27 = getelementptr inbounds i8, ptr %1, i64 12
  %28 = load i32, ptr %27, align 4
  %29 = call ptr @json_object_new_int(i32 noundef %28) #20
  %.not41 = icmp eq ptr %29, null
  br i1 %.not41, label %74, label %30

30:                                               ; preds = %26
  %31 = call i32 @json_object_object_add(ptr noundef nonnull %25, ptr noundef nonnull @.str.353, ptr noundef nonnull %29) #20
  %32 = getelementptr inbounds i8, ptr %1, i64 8
  %33 = load i32, ptr %32, align 4
  %34 = call ptr @json_object_new_int(i32 noundef %33) #20
  %.not42 = icmp eq ptr %34, null
  br i1 %.not42, label %74, label %35

35:                                               ; preds = %30
  %36 = call i32 @json_object_object_add(ptr noundef nonnull %25, ptr noundef nonnull @.str.354, ptr noundef nonnull %34) #20
  %37 = load i32, ptr %1, align 4
  %38 = call i32 (ptr, i64, ptr, ...) @snprintf(ptr noundef nonnull dereferenceable(1) %5, i64 noundef 16, ptr noundef nonnull @.str.355, i32 noundef %37) #20
  %39 = call ptr @json_object_new_string(ptr noundef nonnull %5) #20
  %.not43 = icmp eq ptr %39, null
  br i1 %.not43, label %74, label %40

40:                                               ; preds = %35
  %41 = call i32 @json_object_object_add(ptr noundef nonnull %25, ptr noundef nonnull @.str.356, ptr noundef nonnull %39) #20
  %42 = getelementptr inbounds i8, ptr %1, i64 16
  %43 = load i32, ptr %42, align 4
  %44 = lshr i32 %43, 29
  %.lobit = and i32 %44, 1
  %45 = call ptr @json_object_new_boolean(i32 noundef %.lobit) #20
  %.not44 = icmp eq ptr %45, null
  br i1 %.not44, label %48, label %46

46:                                               ; preds = %40
  %47 = call i32 @json_object_object_add(ptr noundef nonnull %25, ptr noundef nonnull @.str.357, ptr noundef nonnull %45) #20
  br label %48

48:                                               ; preds = %46, %40
  %49 = load i32, ptr %42, align 4
  %.lobit45 = lshr i32 %49, 31
  %50 = call ptr @json_object_new_boolean(i32 noundef %.lobit45) #20
  %.not46 = icmp eq ptr %50, null
  br i1 %.not46, label %53, label %51

51:                                               ; preds = %48
  %52 = call i32 @json_object_object_add(ptr noundef nonnull %25, ptr noundef nonnull @.str.358, ptr noundef nonnull %50) #20
  br label %53

53:                                               ; preds = %51, %48
  %54 = getelementptr inbounds i8, ptr %1, i64 20
  %55 = load i32, ptr %54, align 4
  %.not47 = icmp sgt i32 %55, -1
  br i1 %.not47, label %56, label %67

56:                                               ; preds = %53
  %57 = getelementptr inbounds i8, ptr %1, i64 24
  %58 = load i32, ptr %57, align 4
  %.not48 = icmp sgt i32 %58, -1
  br i1 %.not48, label %59, label %67

59:                                               ; preds = %56
  %60 = load i32, ptr %27, align 4
  %.not49 = icmp eq i32 %60, 0
  br i1 %.not49, label %64, label %61

61:                                               ; preds = %59
  %62 = getelementptr inbounds i8, ptr %1, i64 28
  %63 = load i32, ptr %62, align 4
  %.not50 = icmp sgt i32 %63, -1
  br i1 %.not50, label %64, label %67

64:                                               ; preds = %61, %59
  %65 = getelementptr inbounds i8, ptr %1, i64 32
  %66 = load i32, ptr %65, align 4
  %.lobit51 = lshr i32 %66, 31
  br label %67

67:                                               ; preds = %64, %61, %56, %53
  %68 = phi i32 [ 1, %61 ], [ 1, %56 ], [ 1, %53 ], [ %.lobit51, %64 ]
  %69 = call ptr @json_object_new_boolean(i32 noundef %68) #20
  %.not52 = icmp eq ptr %69, null
  br i1 %.not52, label %72, label %70

70:                                               ; preds = %67
  %71 = call i32 @json_object_object_add(ptr noundef nonnull %25, ptr noundef nonnull @.str.359, ptr noundef nonnull %69) #20
  br label %72

72:                                               ; preds = %70, %67
  %73 = call i32 @json_object_array_add(ptr noundef nonnull %23, ptr noundef nonnull %25) #20
  br label %74

74:                                               ; preds = %get_section_json.exit.thread, %35, %30, %26, %24, %get_section_json.exit, %72
  ret void
}